; Function Attrs: mustprogress ssp uwtable
define internal fastcc void @_ZN6open3d12_GLOBAL__N_123GlobalColorMapSingletonC2Ev() unnamed_addr #9 align 2 personality ptr @__gxx_personality_v0 {
  %1 = tail call noalias noundef nonnull dereferenceable(8) ptr @_Znwm(i64 noundef 8) #24
  store ptr getelementptr inbounds nuw inrange(-16, 24) (i8, ptr @_ZTVN6open3d13visualization11ColorMapJetE, i64 16), ptr %1, align 8, !tbaa !28
  store ptr %1, ptr @_ZZN6open3d12_GLOBAL__N_123GlobalColorMapSingleton11GetInstanceEvE9singleton, align 8, !tbaa !19
  store ptr null, ptr getelementptr inbounds nuw (i8, ptr @_ZZN6open3d12_GLOBAL__N_123GlobalColorMapSingleton11GetInstanceEvE9singleton, i64 8), align 8, !tbaa !25
  %2 = invoke noalias noundef nonnull dereferenceable(24) ptr @_Znwm(i64 noundef 24) #24
          to label %_ZNSt10shared_ptrIKN6open3d13visualization8ColorMapEEC2INS1_11ColorMapJetEvEEPT_.exit unwind label %3

3:                                                ; preds = %0
  %4 = landingpad { ptr, i32 }
          catch ptr null
  %5 = extractvalue { ptr, i32 } %4, 0
  %6 = tail call ptr @__cxa_begin_catch(ptr %5) #22
  tail call void @_ZdlPvm(ptr noundef nonnull %1, i64 noundef 8) #21
  invoke void @__cxa_rethrow() #25
          to label %12 unwind label %7

7:                                                ; preds = %3
  %8 = landingpad { ptr, i32 }
          cleanup
  invoke void @__cxa_end_catch()
          to label %common.resume unwind label %9

common.resume:                                    ; preds = %7, %17
  %common.resume.op = phi { ptr, i32 } [ %18, %17 ], [ %8, %7 ]
  resume { ptr, i32 } %common.resume.op

9:                                                ; preds = %7
  %10 = landingpad { ptr, i32 }
          catch ptr null
  %11 = extractvalue { ptr, i32 } %10, 0
  tail call void @__clang_call_terminate(ptr %11) #23
  unreachable

12:                                               ; preds = %3
  unreachable

_ZNSt10shared_ptrIKN6open3d13visualization8ColorMapEEC2INS1_11ColorMapJetEvEEPT_.exit: ; preds = %0
  %13 = getelementptr inbounds nuw i8, ptr %2, i64 8
  store i32 1, ptr %13, align 8, !tbaa !30
  %14 = getelementptr inbounds nuw i8, ptr %2, i64 12
  store i32 1, ptr %14, align 4, !tbaa !32
  store ptr getelementptr inbounds nuw inrange(-16, 40) (i8, ptr @_ZTVSt15_Sp_counted_ptrIPN6open3d13visualization11ColorMapJetELN9__gnu_cxx12_Lock_policyE2EE, i64 16), ptr %2, align 8, !tbaa !28
  %15 = getelementptr inbounds nuw i8, ptr %2, i64 16
  store ptr %1, ptr %15, align 8, !tbaa !33
  store ptr %2, ptr getelementptr inbounds nuw (i8, ptr @_ZZN6open3d12_GLOBAL__N_123GlobalColorMapSingleton11GetInstanceEvE9singleton, i64 8), align 8, !tbaa !25
  invoke void @_ZN6open3d7utility6Logger9LogDebug_IJEEEvPKciS4_S4_DpOT_(ptr noundef nonnull @.str, i32 noundef 20, ptr noundef nonnull @__PRETTY_FUNCTION__._ZN6open3d12_GLOBAL__N_123GlobalColorMapSingletonC2Ev, ptr noundef nonnull @.str.3)
          to label %16 unwind label %17

16:                                               ; preds = %_ZNSt10shared_ptrIKN6open3d13visualization8ColorMapEEC2INS1_11ColorMapJetEvEEPT_.exit
  ret void

17:                                               ; preds = %_ZNSt10shared_ptrIKN6open3d13visualization8ColorMapEEC2INS1_11ColorMapJetEvEEPT_.exit
  %18 = landingpad { ptr, i32 }
          cleanup
  tail call void @_ZNSt12__shared_ptrIKN6open3d13visualization8ColorMapELN9__gnu_cxx12_Lock_policyE2EED2Ev(ptr noundef nonnull align 8 dereferenceable(16) @_ZZN6open3d12_GLOBAL__N_123GlobalColorMapSingleton11GetInstanceEvE9singleton) #22
  br label %common.resume
}